target datalayout = "e-m:e-p270:32:32-p271:32:32-p272:64:64-i64:64-i128:128-f80:128-n8:16:32:64-S128"
target triple = "x86_64-unknown-linux-gnu"

@.str.8 = private unnamed_addr constant [17 x i8] c"/proc/self/smaps\00", align 1
@.str.9 = private unnamed_addr constant [2 x i8] c"r\00", align 1
@.str.10 = private unnamed_addr constant [16 x i8] c"/proc/%ld/smaps\00", align 1

; Function Attrs: nounwind uwtable
define dso_local i64 @zmalloc_get_smap_bytes_by_field(ptr noundef %field, i64 noundef %pid) #0 {
entry:
  %retval = alloca i64, align 8
  %field.addr = alloca ptr, align 8
  %pid.addr = alloca i64, align 8
  %line = alloca [1024 x i8], align 16
  %bytes = alloca i64, align 8
  %flen = alloca i32, align 4
  %fp = alloca ptr, align 8
  %filename = alloca [128 x i8], align 16
  %p = alloca ptr, align 8
  store ptr %field, ptr %field.addr, align 8
  store i64 %pid, ptr %pid.addr, align 8
  store i64 0, ptr %bytes, align 8
  %0 = load ptr, ptr %field.addr, align 8
  %call = call i64 @strlen(ptr noundef %0) #17
  %conv = trunc i64 %call to i32
  store i32 %conv, ptr %flen, align 4
  %1 = load i64, ptr %pid.addr, align 8
  %cmp = icmp eq i64 %1, -1
  br i1 %cmp, label %if.then, label %if.else

if.then:                                          ; preds = %entry
  %call2 = call noalias ptr @fopen64(ptr noundef @.str.8, ptr noundef @.str.9)
  store ptr %call2, ptr %fp, align 8
  br label %if.end

if.else:                                          ; preds = %entry
  %arraydecay = getelementptr inbounds [128 x i8], ptr %filename, i64 0, i64 0
  %2 = load i64, ptr %pid.addr, align 8
  %call3 = call i32 (ptr, i64, ptr, ...) @snprintf(ptr noundef %arraydecay, i64 noundef 128, ptr noundef @.str.10, i64 noundef %2) #12
  %arraydecay4 = getelementptr inbounds [128 x i8], ptr %filename, i64 0, i64 0
  %call5 = call noalias ptr @fopen64(ptr noundef %arraydecay4, ptr noundef @.str.9)
  store ptr %call5, ptr %fp, align 8
  br label %if.end

if.end:                                           ; preds = %if.else, %if.then
  %3 = load ptr, ptr %fp, align 8
  %tobool = icmp ne ptr %3, null
  br i1 %tobool, label %if.end7, label %if.then6

if.then6:                                         ; preds = %if.end
  store i64 0, ptr %retval, align 8
  br label %return

if.end7:                                          ; preds = %if.end
  br label %while.cond

while.cond:                                       ; preds = %if.end25, %if.end7
  %arraydecay8 = getelementptr inbounds [1024 x i8], ptr %line, i64 0, i64 0
  %4 = load ptr, ptr %fp, align 8
  %call9 = call ptr @fgets(ptr noundef %arraydecay8, i32 noundef 1024, ptr noundef %4)
  %cmp10 = icmp ne ptr %call9, null
  br i1 %cmp10, label %while.body, label %while.end

while.body:                                       ; preds = %while.cond
  %arraydecay12 = getelementptr inbounds [1024 x i8], ptr %line, i64 0, i64 0
  %5 = load ptr, ptr %field.addr, align 8
  %6 = load i32, ptr %flen, align 4
  %conv13 = sext i32 %6 to i64
  %call14 = call i32 @strncmp(ptr noundef %arraydecay12, ptr noundef %5, i64 noundef %conv13) #17
  %cmp15 = icmp eq i32 %call14, 0
  br i1 %cmp15, label %if.then17, label %if.end25

if.then17:                                        ; preds = %while.body
  %arraydecay18 = getelementptr inbounds [1024 x i8], ptr %line, i64 0, i64 0
  %call19 = call ptr @strchr(ptr noundef %arraydecay18, i32 noundef 107) #17
  store ptr %call19, ptr %p, align 8
  %7 = load ptr, ptr %p, align 8
  %tobool20 = icmp ne ptr %7, null
  br i1 %tobool20, label %if.then21, label %if.end24

if.then21:                                        ; preds = %if.then17
  %8 = load ptr, ptr %p, align 8
  store i8 0, ptr %8, align 1
  %arraydecay22 = getelementptr inbounds [1024 x i8], ptr %line, i64 0, i64 0
  %9 = load i32, ptr %flen, align 4
  %idx.ext = sext i32 %9 to i64
  %add.ptr = getelementptr inbounds i8, ptr %arraydecay22, i64 %idx.ext
  %call23 = call i64 @strtol(ptr noundef %add.ptr, ptr noundef null, i32 noundef 10) #12
  %mul = mul nsw i64 %call23, 1024
  %10 = load i64, ptr %bytes, align 8
  %add = add i64 %10, %mul
  store i64 %add, ptr %bytes, align 8
  br label %if.end24

if.end24:                                         ; preds = %if.then21, %if.then17
  br label %if.end25

if.end25:                                         ; preds = %if.end24, %while.body
  br label %while.cond, !llvm.loop !8

while.end:                                        ; preds = %while.cond
  %11 = load ptr, ptr %fp, align 8
  %call26 = call i32 @fclose(ptr noundef %11)
  %12 = load i64, ptr %bytes, align 8
  store i64 %12, ptr %retval, align 8
  br label %return

return:                                           ; preds = %while.end, %if.then6
  %13 = load i64, ptr %retval, align 8
  ret i64 %13
}