; Function Attrs: nofree nounwind uwtable
define dso_local i64 @zmalloc_get_smap_bytes_by_field(ptr nocapture noundef readonly %field, i64 noundef %pid) local_unnamed_addr #17 {
entry:
  %line = alloca [1024 x i8], align 16
  %filename = alloca [128 x i8], align 16
  %call = tail call i64 @strlen(ptr noundef nonnull dereferenceable(1) %field) #28
  %cmp = icmp eq i64 %pid, -1
  br i1 %cmp, label %if.then, label %if.else

if.then:                                          ; preds = %entry
  %call2 = tail call noalias ptr @fopen64(ptr noundef nonnull @.str.8, ptr noundef nonnull @.str.9)
  br label %if.end

if.else:                                          ; preds = %entry
  %call3 = call i32 (ptr, i64, ptr, ...) @snprintf(ptr noundef nonnull dereferenceable(1) %filename, i64 noundef 128, ptr noundef nonnull @.str.10, i64 noundef %pid) #24
  %call5 = call noalias ptr @fopen64(ptr noundef nonnull %filename, ptr noundef nonnull @.str.9)
  br label %if.end

if.end:                                           ; preds = %if.else, %if.then
  %fp.0 = phi ptr [ %call2, %if.then ], [ %call5, %if.else ]
  %tobool.not = icmp eq ptr %fp.0, null
  br i1 %tobool.not, label %return, label %while.cond.preheader

while.cond.preheader:                             ; preds = %if.end
  %call98 = call ptr @fgets(ptr noundef nonnull %line, i32 noundef 1024, ptr noundef nonnull %fp.0)
  %cmp10.not9 = icmp eq ptr %call98, null
  br i1 %cmp10.not9, label %while.end, label %while.body.lr.ph

while.body.lr.ph:                                 ; preds = %while.cond.preheader
  %sext = shl i64 %call, 32
  %conv13 = ashr exact i64 %sext, 32
  %add.ptr = getelementptr inbounds i8, ptr %line, i64 %conv13
  br label %while.body

while.body:                                       ; preds = %while.body.lr.ph, %if.end25
  %bytes.010 = phi i64 [ 0, %while.body.lr.ph ], [ %bytes.1, %if.end25 ]
  %call14 = call i32 @strncmp(ptr noundef nonnull %line, ptr noundef %field, i64 noundef %conv13) #28
  %cmp15 = icmp eq i32 %call14, 0
  br i1 %cmp15, label %if.then17, label %if.end25

if.then17:                                        ; preds = %while.body
  %call19 = call ptr @strchr(ptr noundef nonnull dereferenceable(1) %line, i32 noundef 107) #28
  %tobool20.not = icmp eq ptr %call19, null
  br i1 %tobool20.not, label %if.end25, label %if.then21

if.then21:                                        ; preds = %if.then17
  store i8 0, ptr %call19, align 1
  %call23 = call i64 @strtol(ptr nocapture noundef nonnull %add.ptr, ptr noundef null, i32 noundef 10) #24
  %mul = shl nsw i64 %call23, 10
  %add = add i64 %mul, %bytes.010
  br label %if.end25

if.end25:                                         ; preds = %if.then17, %if.then21, %while.body
  %bytes.1 = phi i64 [ %add, %if.then21 ], [ %bytes.010, %if.then17 ], [ %bytes.010, %while.body ]
  %call9 = call ptr @fgets(ptr noundef nonnull %line, i32 noundef 1024, ptr noundef nonnull %fp.0)
  %cmp10.not = icmp eq ptr %call9, null
  br i1 %cmp10.not, label %while.end, label %while.body, !llvm.loop !8

while.end:                                        ; preds = %if.end25, %while.cond.preheader
  %bytes.0.lcssa = phi i64 [ 0, %while.cond.preheader ], [ %bytes.1, %if.end25 ]
  %call26 = call i32 @fclose(ptr noundef nonnull %fp.0)
  br label %return

return:                                           ; preds = %if.end, %while.end
  %retval.0 = phi i64 [ %bytes.0.lcssa, %while.end ], [ 0, %if.end ]
  ret i64 %retval.0
}